; ModuleID = '15/1345.c'
source_filename = "15/1345.c"
target datalayout = "e-m:e-p270:32:32-p271:32:32-p272:64:64-i64:64-f80:128-n8:16:32:64-S128"
target triple = "x86_64-pc-linux-gnu"

@.str = private unnamed_addr constant [3 x i8] c"%d\00", align 1

; Function Attrs: noinline nounwind uwtable
define dso_local void @main() #0 {
  %1 = alloca i32, align 4
  %2 = alloca [100 x [100 x i32]], align 16
  %3 = alloca i32, align 4
  %4 = alloca i32, align 4
  %5 = alloca i32, align 4
  %6 = alloca i32, align 4
  %7 = alloca i32, align 4
  %8 = alloca i32, align 4
  %9 = alloca i32, align 4
  %10 = alloca i32, align 4
  %11 = alloca i32, align 4
  store i32 0, i32* %5, align 4
  store i32 0, i32* %6, align 4
  store i32 0, i32* %7, align 4
  store i32 0, i32* %8, align 4
  %12 = call i32 (i8*, ...) @__isoc99_scanf(i8* getelementptr inbounds ([3 x i8], [3 x i8]* @.str, i64 0, i64 0), i32* %1)
  store i32 0, i32* %3, align 4
  br label %13

13:                                               ; preds = %34, %0
  %14 = load i32, i32* %3, align 4
  %15 = load i32, i32* %1, align 4
  %16 = icmp slt i32 %14, %15
  br i1 %16, label %17, label %37

17:                                               ; preds = %13
  store i32 0, i32* %4, align 4
  br label %18

18:                                               ; preds = %30, %17
  %19 = load i32, i32* %4, align 4
  %20 = load i32, i32* %1, align 4
  %21 = icmp slt i32 %19, %20
  br i1 %21, label %22, label %33

22:                                               ; preds = %18
  %23 = load i32, i32* %3, align 4
  %24 = sext i32 %23 to i64
  %25 = getelementptr inbounds [100 x [100 x i32]], [100 x [100 x i32]]* %2, i64 0, i64 %24
  %26 = load i32, i32* %4, align 4
  %27 = sext i32 %26 to i64
  %28 = getelementptr inbounds [100 x i32], [100 x i32]* %25, i64 0, i64 %27
  %29 = call i32 (i8*, ...) @__isoc99_scanf(i8* getelementptr inbounds ([3 x i8], [3 x i8]* @.str, i64 0, i64 0), i32* %28)
  br label %30

30:                                               ; preds = %22
  %31 = load i32, i32* %4, align 4
  %32 = add nsw i32 %31, 1
  store i32 %32, i32* %4, align 4
  br label %18

33:                                               ; preds = %18
  br label %34

34:                                               ; preds = %33
  %35 = load i32, i32* %3, align 4
  %36 = add nsw i32 %35, 1
  store i32 %36, i32* %3, align 4
  br label %13

37:                                               ; preds = %13
  store i32 0, i32* %3, align 4
  br label %38

38:                                               ; preds = %238, %37
  %39 = load i32, i32* %3, align 4
  %40 = load i32, i32* %1, align 4
  %41 = icmp slt i32 %39, %40
  br i1 %41, label %42, label %241

42:                                               ; preds = %38
  store i32 0, i32* %4, align 4
  br label %43

43:                                               ; preds = %234, %42
  %44 = load i32, i32* %4, align 4
  %45 = load i32, i32* %1, align 4
  %46 = icmp slt i32 %44, %45
  br i1 %46, label %47, label %237

47:                                               ; preds = %43
  %48 = load i32, i32* %3, align 4
  %49 = sext i32 %48 to i64
  %50 = getelementptr inbounds [100 x [100 x i32]], [100 x [100 x i32]]* %2, i64 0, i64 %49
  %51 = load i32, i32* %4, align 4
  %52 = sext i32 %51 to i64
  %53 = getelementptr inbounds [100 x i32], [100 x i32]* %50, i64 0, i64 %52
  %54 = load i32, i32* %53, align 4
  %55 = icmp eq i32 %54, 0
  br i1 %55, label %56, label %78

56:                                               ; preds = %47
  %57 = load i32, i32* %3, align 4
  %58 = sext i32 %57 to i64
  %59 = getelementptr inbounds [100 x [100 x i32]], [100 x [100 x i32]]* %2, i64 0, i64 %58
  %60 = load i32, i32* %4, align 4
  %61 = sub nsw i32 %60, 1
  %62 = sext i32 %61 to i64
  %63 = getelementptr inbounds [100 x i32], [100 x i32]* %59, i64 0, i64 %62
  %64 = load i32, i32* %63, align 4
  %65 = icmp eq i32 %64, 255
  br i1 %65, label %66, label %78

66:                                               ; preds = %56
  %67 = load i32, i32* %3, align 4
  %68 = sext i32 %67 to i64
  %69 = getelementptr inbounds [100 x [100 x i32]], [100 x [100 x i32]]* %2, i64 0, i64 %68
  %70 = load i32, i32* %4, align 4
  %71 = add nsw i32 %70, 1
  %72 = sext i32 %71 to i64
  %73 = getelementptr inbounds [100 x i32], [100 x i32]* %69, i64 0, i64 %72
  %74 = load i32, i32* %73, align 4
  %75 = icmp eq i32 %74, 0
  br i1 %75, label %76, label %78

76:                                               ; preds = %66
  %77 = load i32, i32* %4, align 4
  store i32 %77, i32* %5, align 4
  br label %78

78:                                               ; preds = %76, %66, %56, %47
  %79 = load i32, i32* %4, align 4
  %80 = load i32, i32* %1, align 4
  %81 = sub nsw i32 %80, 1
  %82 = icmp eq i32 %79, %81
  br i1 %82, label %83, label %94

83:                                               ; preds = %78
  %84 = load i32, i32* %3, align 4
  %85 = sext i32 %84 to i64
  %86 = getelementptr inbounds [100 x [100 x i32]], [100 x [100 x i32]]* %2, i64 0, i64 %85
  %87 = load i32, i32* %4, align 4
  %88 = sext i32 %87 to i64
  %89 = getelementptr inbounds [100 x i32], [100 x i32]* %86, i64 0, i64 %88
  %90 = load i32, i32* %89, align 4
  %91 = icmp eq i32 %90, 0
  br i1 %91, label %92, label %94

92:                                               ; preds = %83
  %93 = load i32, i32* %4, align 4
  store i32 %93, i32* %6, align 4
  br label %131

94:                                               ; preds = %83, %78
  %95 = load i32, i32* %4, align 4
  %96 = load i32, i32* %1, align 4
  %97 = sub nsw i32 %96, 1
  %98 = icmp ne i32 %95, %97
  br i1 %98, label %99, label %130

99:                                               ; preds = %94
  %100 = load i32, i32* %3, align 4
  %101 = sext i32 %100 to i64
  %102 = getelementptr inbounds [100 x [100 x i32]], [100 x [100 x i32]]* %2, i64 0, i64 %101
  %103 = load i32, i32* %4, align 4
  %104 = sext i32 %103 to i64
  %105 = getelementptr inbounds [100 x i32], [100 x i32]* %102, i64 0, i64 %104
  %106 = load i32, i32* %105, align 4
  %107 = icmp eq i32 %106, 0
  br i1 %107, label %108, label %130

108:                                              ; preds = %99
  %109 = load i32, i32* %3, align 4
  %110 = sext i32 %109 to i64
  %111 = getelementptr inbounds [100 x [100 x i32]], [100 x [100 x i32]]* %2, i64 0, i64 %110
  %112 = load i32, i32* %4, align 4
  %113 = add nsw i32 %112, 1
  %114 = sext i32 %113 to i64
  %115 = getelementptr inbounds [100 x i32], [100 x i32]* %111, i64 0, i64 %114
  %116 = load i32, i32* %115, align 4
  %117 = icmp eq i32 %116, 255
  br i1 %117, label %118, label %130

118:                                              ; preds = %108
  %119 = load i32, i32* %3, align 4
  %120 = sext i32 %119 to i64
  %121 = getelementptr inbounds [100 x [100 x i32]], [100 x [100 x i32]]* %2, i64 0, i64 %120
  %122 = load i32, i32* %4, align 4
  %123 = sub nsw i32 %122, 1
  %124 = sext i32 %123 to i64
  %125 = getelementptr inbounds [100 x i32], [100 x i32]* %121, i64 0, i64 %124
  %126 = load i32, i32* %125, align 4
  %127 = icmp eq i32 %126, 0
  br i1 %127, label %128, label %130

128:                                              ; preds = %118
  %129 = load i32, i32* %4, align 4
  store i32 %129, i32* %6, align 4
  br label %130

130:                                              ; preds = %128, %118, %108, %99, %94
  br label %131

131:                                              ; preds = %130, %92
  %132 = load i32, i32* %3, align 4
  %133 = icmp eq i32 %132, 0
  br i1 %133, label %134, label %145

134:                                              ; preds = %131
  %135 = load i32, i32* %3, align 4
  %136 = sext i32 %135 to i64
  %137 = getelementptr inbounds [100 x [100 x i32]], [100 x [100 x i32]]* %2, i64 0, i64 %136
  %138 = load i32, i32* %4, align 4
  %139 = sext i32 %138 to i64
  %140 = getelementptr inbounds [100 x i32], [100 x i32]* %137, i64 0, i64 %139
  %141 = load i32, i32* %140, align 4
  %142 = icmp eq i32 %141, 0
  br i1 %142, label %143, label %145

143:                                              ; preds = %134
  %144 = load i32, i32* %3, align 4
  store i32 %144, i32* %7, align 4
  br label %180

145:                                              ; preds = %134, %131
  %146 = load i32, i32* %3, align 4
  %147 = icmp ne i32 %146, 0
  br i1 %147, label %148, label %179

148:                                              ; preds = %145
  %149 = load i32, i32* %3, align 4
  %150 = sext i32 %149 to i64
  %151 = getelementptr inbounds [100 x [100 x i32]], [100 x [100 x i32]]* %2, i64 0, i64 %150
  %152 = load i32, i32* %4, align 4
  %153 = sext i32 %152 to i64
  %154 = getelementptr inbounds [100 x i32], [100 x i32]* %151, i64 0, i64 %153
  %155 = load i32, i32* %154, align 4
  %156 = icmp eq i32 %155, 0
  br i1 %156, label %157, label %179

157:                                              ; preds = %148
  %158 = load i32, i32* %3, align 4
  %159 = sub nsw i32 %158, 1
  %160 = sext i32 %159 to i64
  %161 = getelementptr inbounds [100 x [100 x i32]], [100 x [100 x i32]]* %2, i64 0, i64 %160
  %162 = load i32, i32* %4, align 4
  %163 = sext i32 %162 to i64
  %164 = getelementptr inbounds [100 x i32], [100 x i32]* %161, i64 0, i64 %163
  %165 = load i32, i32* %164, align 4
  %166 = icmp eq i32 %165, 255
  br i1 %166, label %167, label %179

167:                                              ; preds = %157
  %168 = load i32, i32* %3, align 4
  %169 = add nsw i32 %168, 1
  %170 = sext i32 %169 to i64
  %171 = getelementptr inbounds [100 x [100 x i32]], [100 x [100 x i32]]* %2, i64 0, i64 %170
  %172 = load i32, i32* %4, align 4
  %173 = sext i32 %172 to i64
  %174 = getelementptr inbounds [100 x i32], [100 x i32]* %171, i64 0, i64 %173
  %175 = load i32, i32* %174, align 4
  %176 = icmp eq i32 %175, 0
  br i1 %176, label %177, label %179

177:                                              ; preds = %167
  %178 = load i32, i32* %3, align 4
  store i32 %178, i32* %7, align 4
  br label %179

179:                                              ; preds = %177, %167, %157, %148, %145
  br label %180

180:                                              ; preds = %179, %143
  %181 = load i32, i32* %3, align 4
  %182 = load i32, i32* %1, align 4
  %183 = sub nsw i32 %182, 1
  %184 = icmp eq i32 %181, %183
  br i1 %184, label %185, label %196

185:                                              ; preds = %180
  %186 = load i32, i32* %3, align 4
  %187 = sext i32 %186 to i64
  %188 = getelementptr inbounds [100 x [100 x i32]], [100 x [100 x i32]]* %2, i64 0, i64 %187
  %189 = load i32, i32* %4, align 4
  %190 = sext i32 %189 to i64
  %191 = getelementptr inbounds [100 x i32], [100 x i32]* %188, i64 0, i64 %190
  %192 = load i32, i32* %191, align 4
  %193 = icmp eq i32 %192, 0
  br i1 %193, label %194, label %196

194:                                              ; preds = %185
  %195 = load i32, i32* %3, align 4
  store i32 %195, i32* %8, align 4
  br label %233

196:                                              ; preds = %185, %180
  %197 = load i32, i32* %3, align 4
  %198 = load i32, i32* %1, align 4
  %199 = sub nsw i32 %198, 1
  %200 = icmp ne i32 %197, %199
  br i1 %200, label %201, label %232

201:                                              ; preds = %196
  %202 = load i32, i32* %3, align 4
  %203 = sext i32 %202 to i64
  %204 = getelementptr inbounds [100 x [100 x i32]], [100 x [100 x i32]]* %2, i64 0, i64 %203
  %205 = load i32, i32* %4, align 4
  %206 = sext i32 %205 to i64
  %207 = getelementptr inbounds [100 x i32], [100 x i32]* %204, i64 0, i64 %206
  %208 = load i32, i32* %207, align 4
  %209 = icmp eq i32 %208, 0
  br i1 %209, label %210, label %232

210:                                              ; preds = %201
  %211 = load i32, i32* %3, align 4
  %212 = add nsw i32 %211, 1
  %213 = sext i32 %212 to i64
  %214 = getelementptr inbounds [100 x [100 x i32]], [100 x [100 x i32]]* %2, i64 0, i64 %213
  %215 = load i32, i32* %4, align 4
  %216 = sext i32 %215 to i64
  %217 = getelementptr inbounds [100 x i32], [100 x i32]* %214, i64 0, i64 %216
  %218 = load i32, i32* %217, align 4
  %219 = icmp eq i32 %218, 255
  br i1 %219, label %220, label %232

220:                                              ; preds = %210
  %221 = load i32, i32* %3, align 4
  %222 = sub nsw i32 %221, 1
  %223 = sext i32 %222 to i64
  %224 = getelementptr inbounds [100 x [100 x i32]], [100 x [100 x i32]]* %2, i64 0, i64 %223
  %225 = load i32, i32* %4, align 4
  %226 = sext i32 %225 to i64
  %227 = getelementptr inbounds [100 x i32], [100 x i32]* %224, i64 0, i64 %226
  %228 = load i32, i32* %227, align 4
  %229 = icmp eq i32 %228, 0
  br i1 %229, label %230, label %232

230:                                              ; preds = %220
  %231 = load i32, i32* %3, align 4
  store i32 %231, i32* %8, align 4
  br label %232

232:                                              ; preds = %230, %220, %210, %201, %196
  br label %233

233:                                              ; preds = %232, %194
  br label %234

234:                                              ; preds = %233
  %235 = load i32, i32* %4, align 4
  %236 = add nsw i32 %235, 1
  store i32 %236, i32* %4, align 4
  br label %43

237:                                              ; preds = %43
  br label %238

238:                                              ; preds = %237
  %239 = load i32, i32* %3, align 4
  %240 = add nsw i32 %239, 1
  store i32 %240, i32* %3, align 4
  br label %38

241:                                              ; preds = %38
  %242 = load i32, i32* %6, align 4
  %243 = load i32, i32* %5, align 4
  %244 = sub nsw i32 %242, %243
  %245 = sub nsw i32 %244, 1
  store i32 %245, i32* %9, align 4
  %246 = load i32, i32* %8, align 4
  %247 = load i32, i32* %7, align 4
  %248 = sub nsw i32 %246, %247
  %249 = sub nsw i32 %248, 1
  store i32 %249, i32* %10, align 4
  %250 = load i32, i32* %9, align 4
  %251 = load i32, i32* %10, align 4
  %252 = mul nsw i32 %250, %251
  store i32 %252, i32* %11, align 4
  %253 = load i32, i32* %11, align 4
  %254 = call i32 (i8*, ...) @printf(i8* getelementptr inbounds ([3 x i8], [3 x i8]* @.str, i64 0, i64 0), i32 %253)
  ret void
}

declare dso_local i32 @__isoc99_scanf(i8*, ...) #1

declare dso_local i32 @printf(i8*, ...) #1


!llvm.module.flags = !{!0}
!llvm.ident = !{!1}

!0 = !{i32 1, !"wchar_size", i32 4}
!1 = !{!"clang version 10.0.0-4ubuntu1 "}
